; Function Attrs: mustprogress nofree norecurse nosync nounwind memory(read, argmem: readwrite, inaccessiblemem: none) uwtable
define void @_Z14gmx_md5_appendP11md5_state_sPKhi(ptr noundef %0, ptr noundef %1, i32 noundef %2) local_unnamed_addr #1 {
  %4 = load i32, ptr %0, align 4, !tbaa !4
  %5 = lshr i32 %4, 3
  %6 = and i32 %5, 63
  %7 = icmp slt i32 %2, 1
  br i1 %7, label %40, label %8

8:                                                ; preds = %3
  %9 = shl i32 %2, 3
  %10 = lshr i32 %2, 29
  %11 = getelementptr inbounds nuw i8, ptr %0, i64 4
  %12 = load i32, ptr %11, align 4, !tbaa !4
  %13 = add i32 %12, %10
  store i32 %13, ptr %11, align 4, !tbaa !4
  %14 = add i32 %4, %9
  store i32 %14, ptr %0, align 4, !tbaa !4
  %15 = icmp ult i32 %14, %9
  br i1 %15, label %16, label %18

16:                                               ; preds = %8
  %17 = add i32 %13, 1
  store i32 %17, ptr %11, align 4, !tbaa !4
  br label %18

18:                                               ; preds = %16, %8
  %.not = icmp eq i32 %6, 0
  br i1 %.not, label %32, label %19

19:                                               ; preds = %18
  %20 = add nuw nsw i32 %6, %2
  %21 = icmp samesign ugt i32 %20, 64
  %22 = sub nuw nsw i32 64, %6
  %23 = select i1 %21, i32 %22, i32 %2
  %24 = getelementptr inbounds nuw i8, ptr %0, i64 24
  %25 = zext nneg i32 %6 to i64
  %26 = getelementptr inbounds nuw i8, ptr %24, i64 %25
  %27 = zext nneg i32 %23 to i64
  tail call void @llvm.memcpy.p0.p0.i64(ptr nonnull align 1 %26, ptr align 1 %1, i64 %27, i1 false)
  %28 = add nuw nsw i32 %23, %6
  %29 = icmp samesign ugt i32 %28, 63
  br i1 %29, label %.thread, label %40

.thread:                                          ; preds = %19
  %30 = getelementptr inbounds nuw i8, ptr %1, i64 %27
  %31 = sub nsw i32 %2, %23
  tail call fastcc void @_ZL11md5_processP11md5_state_sPKh(ptr noundef nonnull %0, ptr noundef nonnull %24)
  br label %32

32:                                               ; preds = %.thread, %18
  %.039 = phi i32 [ %2, %18 ], [ %31, %.thread ]
  %.0 = phi ptr [ %1, %18 ], [ %30, %.thread ]
  %33 = icmp sgt i32 %.039, 63
  br i1 %33, label %.lr.ph, label %._crit_edge

.lr.ph:                                           ; preds = %32, %.lr.ph
  %.248 = phi ptr [ %34, %.lr.ph ], [ %.0, %32 ]
  %.24147 = phi i32 [ %35, %.lr.ph ], [ %.039, %32 ]
  tail call fastcc void @_ZL11md5_processP11md5_state_sPKh(ptr noundef nonnull %0, ptr noundef %.248)
  %34 = getelementptr inbounds nuw i8, ptr %.248, i64 64
  %35 = add nsw i32 %.24147, -64
  %36 = icmp samesign ugt i32 %.24147, 127
  br i1 %36, label %.lr.ph, label %._crit_edge, !llvm.loop !8

._crit_edge:                                      ; preds = %.lr.ph, %32
  %.241.lcssa = phi i32 [ %.039, %32 ], [ %35, %.lr.ph ]
  %.2.lcssa = phi ptr [ %.0, %32 ], [ %34, %.lr.ph ]
  %.not44 = icmp eq i32 %.241.lcssa, 0
  br i1 %.not44, label %40, label %37

37:                                               ; preds = %._crit_edge
  %38 = getelementptr inbounds nuw i8, ptr %0, i64 24
  %39 = sext i32 %.241.lcssa to i64
  tail call void @llvm.memcpy.p0.p0.i64(ptr nonnull align 4 %38, ptr align 1 %.2.lcssa, i64 %39, i1 false)
  br label %40

40:                                               ; preds = %19, %._crit_edge, %37, %3
  ret void
}